target datalayout = "e-m:e-p270:32:32-p271:32:32-p272:64:64-i64:64-i128:128-f80:128-n8:16:32:64-S128"
target triple = "x86_64-pc-linux-gnu"

%struct.AUTHORITY_KEYID_st = type { ptr, ptr, ptr }

@.str = private unnamed_addr constant [33 x i8] c"../openssl/crypto/x509/v3_akid.c\00", align 1
@__func__.i2v_AUTHORITY_KEYID = private unnamed_addr constant [20 x i8] c"i2v_AUTHORITY_KEYID\00", align 1
@.str.1 = private unnamed_addr constant [6 x i8] c"keyid\00", align 1
@.str.2 = private unnamed_addr constant [7 x i8] c"serial\00", align 1

; Function Attrs: inlinehint nounwind uwtable
define internal ptr @ossl_check_CONF_VALUE_freefunc_type(ptr noundef %0) #3 {
  %2 = alloca ptr, align 8
  store ptr %0, ptr %2, align 8, !tbaa !33
  %3 = load ptr, ptr %2, align 8, !tbaa !33
  ret ptr %3
}

; Function Attrs: inlinehint nounwind uwtable
define internal ptr @ossl_check_CONF_VALUE_sk_type(ptr noundef %0) #3 {
  %2 = alloca ptr, align 8
  store ptr %0, ptr %2, align 8, !tbaa !10
  %3 = load ptr, ptr %2, align 8, !tbaa !10
  ret ptr %3
}

; Function Attrs: nounwind uwtable
define internal ptr @i2v_AUTHORITY_KEYID(ptr noundef %0, ptr noundef %1, ptr noundef %2) #1 {
  %4 = alloca ptr, align 8
  %5 = alloca ptr, align 8
  %6 = alloca ptr, align 8
  %7 = alloca ptr, align 8
  %8 = alloca ptr, align 8
  %9 = alloca ptr, align 8
  %10 = alloca ptr, align 8
  %11 = alloca i32, align 4
  store ptr %0, ptr %5, align 8, !tbaa !3
  store ptr %1, ptr %6, align 8, !tbaa !8
  store ptr %2, ptr %7, align 8, !tbaa !10
  call void @llvm.lifetime.start.p0(i64 8, ptr %8) #5
  store ptr null, ptr %8, align 8, !tbaa !12
  call void @llvm.lifetime.start.p0(i64 8, ptr %9) #5
  %12 = load ptr, ptr %7, align 8, !tbaa !10
  store ptr %12, ptr %9, align 8, !tbaa !10
  call void @llvm.lifetime.start.p0(i64 8, ptr %10) #5
  %13 = load ptr, ptr %6, align 8, !tbaa !8
  %14 = getelementptr inbounds nuw %struct.AUTHORITY_KEYID_st, ptr %13, i32 0, i32 0
  %15 = load ptr, ptr %14, align 8, !tbaa !14
  %16 = icmp ne ptr %15, null
  br i1 %16, label %17, label %45

17:                                               ; preds = %3
  %18 = load ptr, ptr %6, align 8, !tbaa !8
  %19 = getelementptr inbounds nuw %struct.AUTHORITY_KEYID_st, ptr %18, i32 0, i32 0
  %20 = load ptr, ptr %19, align 8, !tbaa !14
  %21 = call ptr @i2s_ASN1_OCTET_STRING(ptr noundef null, ptr noundef %20)
  store ptr %21, ptr %8, align 8, !tbaa !12
  %22 = load ptr, ptr %8, align 8, !tbaa !12
  %23 = icmp eq ptr %22, null
  br i1 %23, label %24, label %25

24:                                               ; preds = %17
  call void @ERR_new()
  call void @ERR_set_debug(ptr noundef @.str, i32 noundef 49, ptr noundef @__func__.i2v_AUTHORITY_KEYID)
  call void (i32, i32, ptr, ...) @ERR_set_error(i32 noundef 34, i32 noundef 524301, ptr noundef null)
  store ptr null, ptr %4, align 8
  store i32 1, ptr %11, align 4
  br label %92

25:                                               ; preds = %17
  %26 = load ptr, ptr %6, align 8, !tbaa !8
  %27 = getelementptr inbounds nuw %struct.AUTHORITY_KEYID_st, ptr %26, i32 0, i32 1
  %28 = load ptr, ptr %27, align 8, !tbaa !18
  %29 = icmp ne ptr %28, null
  br i1 %29, label %35, label %30

30:                                               ; preds = %25
  %31 = load ptr, ptr %6, align 8, !tbaa !8
  %32 = getelementptr inbounds nuw %struct.AUTHORITY_KEYID_st, ptr %31, i32 0, i32 2
  %33 = load ptr, ptr %32, align 8, !tbaa !19
  %34 = icmp ne ptr %33, null
  br label %35

35:                                               ; preds = %30, %25
  %36 = phi i1 [ true, %25 ], [ %34, %30 ]
  %37 = select i1 %36, ptr @.str.1, ptr null
  %38 = load ptr, ptr %8, align 8, !tbaa !12
  %39 = call i32 @X509V3_add_value(ptr noundef %37, ptr noundef %38, ptr noundef %7)
  %40 = icmp ne i32 %39, 0
  br i1 %40, label %43, label %41

41:                                               ; preds = %35
  %42 = load ptr, ptr %8, align 8, !tbaa !12
  call void @CRYPTO_free(ptr noundef %42, ptr noundef @.str, i32 noundef 54)
  call void @ERR_new()
  call void @ERR_set_debug(ptr noundef @.str, i32 noundef 55, ptr noundef @__func__.i2v_AUTHORITY_KEYID)
  call void (i32, i32, ptr, ...) @ERR_set_error(i32 noundef 34, i32 noundef 524299, ptr noundef null)
  br label %84

43:                                               ; preds = %35
  %44 = load ptr, ptr %8, align 8, !tbaa !12
  call void @CRYPTO_free(ptr noundef %44, ptr noundef @.str, i32 noundef 58)
  br label %45

45:                                               ; preds = %43, %3
  %46 = load ptr, ptr %6, align 8, !tbaa !8
  %47 = getelementptr inbounds nuw %struct.AUTHORITY_KEYID_st, ptr %46, i32 0, i32 1
  %48 = load ptr, ptr %47, align 8, !tbaa !18
  %49 = icmp ne ptr %48, null
  br i1 %49, label %50, label %61

50:                                               ; preds = %45
  %51 = load ptr, ptr %6, align 8, !tbaa !8
  %52 = getelementptr inbounds nuw %struct.AUTHORITY_KEYID_st, ptr %51, i32 0, i32 1
  %53 = load ptr, ptr %52, align 8, !tbaa !18
  %54 = load ptr, ptr %7, align 8, !tbaa !10
  %55 = call ptr @i2v_GENERAL_NAMES(ptr noundef null, ptr noundef %53, ptr noundef %54)
  store ptr %55, ptr %10, align 8, !tbaa !10
  %56 = load ptr, ptr %10, align 8, !tbaa !10
  %57 = icmp eq ptr %56, null
  br i1 %57, label %58, label %59

58:                                               ; preds = %50
  call void @ERR_new()
  call void @ERR_set_debug(ptr noundef @.str, i32 noundef 63, ptr noundef @__func__.i2v_AUTHORITY_KEYID)
  call void (i32, i32, ptr, ...) @ERR_set_error(i32 noundef 34, i32 noundef 524299, ptr noundef null)
  br label %84

59:                                               ; preds = %50
  %60 = load ptr, ptr %10, align 8, !tbaa !10
  store ptr %60, ptr %7, align 8, !tbaa !10
  br label %61

61:                                               ; preds = %59, %45
  %62 = load ptr, ptr %6, align 8, !tbaa !8
  %63 = getelementptr inbounds nuw %struct.AUTHORITY_KEYID_st, ptr %62, i32 0, i32 2
  %64 = load ptr, ptr %63, align 8, !tbaa !19
  %65 = icmp ne ptr %64, null
  br i1 %65, label %66, label %82

66:                                               ; preds = %61
  %67 = load ptr, ptr %6, align 8, !tbaa !8
  %68 = getelementptr inbounds nuw %struct.AUTHORITY_KEYID_st, ptr %67, i32 0, i32 2
  %69 = load ptr, ptr %68, align 8, !tbaa !19
  %70 = call ptr @i2s_ASN1_OCTET_STRING(ptr noundef null, ptr noundef %69)
  store ptr %70, ptr %8, align 8, !tbaa !12
  %71 = load ptr, ptr %8, align 8, !tbaa !12
  %72 = icmp eq ptr %71, null
  br i1 %72, label %73, label %74

73:                                               ; preds = %66
  call void @ERR_new()
  call void @ERR_set_debug(ptr noundef @.str, i32 noundef 71, ptr noundef @__func__.i2v_AUTHORITY_KEYID)
  call void (i32, i32, ptr, ...) @ERR_set_error(i32 noundef 34, i32 noundef 524301, ptr noundef null)
  br label %84

74:                                               ; preds = %66
  %75 = load ptr, ptr %8, align 8, !tbaa !12
  %76 = call i32 @X509V3_add_value(ptr noundef @.str.2, ptr noundef %75, ptr noundef %7)
  %77 = icmp ne i32 %76, 0
  br i1 %77, label %80, label %78

78:                                               ; preds = %74
  %79 = load ptr, ptr %8, align 8, !tbaa !12
  call void @CRYPTO_free(ptr noundef %79, ptr noundef @.str, i32 noundef 75)
  br label %84

80:                                               ; preds = %74
  %81 = load ptr, ptr %8, align 8, !tbaa !12
  call void @CRYPTO_free(ptr noundef %81, ptr noundef @.str, i32 noundef 78)
  br label %82

82:                                               ; preds = %80, %61
  %83 = load ptr, ptr %7, align 8, !tbaa !10
  store ptr %83, ptr %4, align 8
  store i32 1, ptr %11, align 4
  br label %92

84:                                               ; preds = %78, %73, %58, %41
  %85 = load ptr, ptr %9, align 8, !tbaa !10
  %86 = icmp eq ptr %85, null
  br i1 %86, label %87, label %91

87:                                               ; preds = %84
  %88 = load ptr, ptr %7, align 8, !tbaa !10
  %89 = call ptr @ossl_check_CONF_VALUE_sk_type(ptr noundef %88)
  %90 = call ptr @ossl_check_CONF_VALUE_freefunc_type(ptr noundef @X509V3_conf_free)
  call void @OPENSSL_sk_pop_free(ptr noundef %89, ptr noundef %90)
  br label %91

91:                                               ; preds = %87, %84
  store ptr null, ptr %4, align 8
  store i32 1, ptr %11, align 4
  br label %92

92:                                               ; preds = %91, %82, %24
  call void @llvm.lifetime.end.p0(i64 8, ptr %10) #5
  call void @llvm.lifetime.end.p0(i64 8, ptr %9) #5
  call void @llvm.lifetime.end.p0(i64 8, ptr %8) #5
  %93 = load ptr, ptr %4, align 8
  ret ptr %93
}