; Function Attrs: nounwind uwtable
define internal ptr @i2v_AUTHORITY_KEYID(ptr readnone captures(none) %0, ptr noundef readonly captures(none) %1, ptr noundef %2) #1 {
  %4 = alloca ptr, align 8
  store ptr %2, ptr %4, align 8, !tbaa !3
  %5 = load ptr, ptr %1, align 8, !tbaa !8
  %.not = icmp eq ptr %5, null
  br i1 %.not, label %22, label %6

6:                                                ; preds = %3
  %7 = tail call ptr @i2s_ASN1_OCTET_STRING(ptr noundef null, ptr noundef nonnull %5) #4
  %8 = icmp eq ptr %7, null
  br i1 %8, label %9, label %10

9:                                                ; preds = %6
  tail call void @ERR_new() #4
  tail call void @ERR_set_debug(ptr noundef nonnull @.str, i32 noundef 49, ptr noundef nonnull @__func__.i2v_AUTHORITY_KEYID) #4
  tail call void (i32, i32, ptr, ...) @ERR_set_error(i32 noundef 34, i32 noundef 524301, ptr noundef null) #4
  br label %48

10:                                               ; preds = %6
  %11 = getelementptr inbounds nuw i8, ptr %1, i64 8
  %12 = load ptr, ptr %11, align 8, !tbaa !12
  %.not26 = icmp eq ptr %12, null
  br i1 %.not26, label %13, label %17

13:                                               ; preds = %10
  %14 = getelementptr inbounds nuw i8, ptr %1, i64 16
  %15 = load ptr, ptr %14, align 8, !tbaa !13
  %.not27 = icmp eq ptr %15, null
  %16 = select i1 %.not27, ptr null, ptr @.str.1
  br label %17

17:                                               ; preds = %13, %10
  %18 = phi ptr [ @.str.1, %10 ], [ %16, %13 ]
  %19 = call i32 @X509V3_add_value(ptr noundef %18, ptr noundef nonnull %7, ptr noundef nonnull %4) #4
  %.not28 = icmp eq i32 %19, 0
  br i1 %.not28, label %20, label %21

20:                                               ; preds = %17
  call void @CRYPTO_free(ptr noundef nonnull %7, ptr noundef nonnull @.str, i32 noundef 54) #4
  call void @ERR_new() #4
  call void @ERR_set_debug(ptr noundef nonnull @.str, i32 noundef 55, ptr noundef nonnull @__func__.i2v_AUTHORITY_KEYID) #4
  call void (i32, i32, ptr, ...) @ERR_set_error(i32 noundef 34, i32 noundef 524299, ptr noundef null) #4
  br label %44

21:                                               ; preds = %17
  call void @CRYPTO_free(ptr noundef nonnull %7, ptr noundef nonnull @.str, i32 noundef 58) #4
  br label %22

22:                                               ; preds = %21, %3
  %23 = getelementptr inbounds nuw i8, ptr %1, i64 8
  %24 = load ptr, ptr %23, align 8, !tbaa !12
  %.not29 = icmp eq ptr %24, null
  br i1 %.not29, label %31, label %25

25:                                               ; preds = %22
  %26 = load ptr, ptr %4, align 8, !tbaa !3
  %27 = call ptr @i2v_GENERAL_NAMES(ptr noundef null, ptr noundef nonnull %24, ptr noundef %26) #4
  %28 = icmp eq ptr %27, null
  br i1 %28, label %29, label %30

29:                                               ; preds = %25
  call void @ERR_new() #4
  call void @ERR_set_debug(ptr noundef nonnull @.str, i32 noundef 63, ptr noundef nonnull @__func__.i2v_AUTHORITY_KEYID) #4
  call void (i32, i32, ptr, ...) @ERR_set_error(i32 noundef 34, i32 noundef 524299, ptr noundef null) #4
  br label %44

30:                                               ; preds = %25
  store ptr %27, ptr %4, align 8, !tbaa !3
  br label %31

31:                                               ; preds = %30, %22
  %32 = getelementptr inbounds nuw i8, ptr %1, i64 16
  %33 = load ptr, ptr %32, align 8, !tbaa !13
  %.not30 = icmp eq ptr %33, null
  br i1 %.not30, label %42, label %34

34:                                               ; preds = %31
  %35 = call ptr @i2s_ASN1_OCTET_STRING(ptr noundef null, ptr noundef nonnull %33) #4
  %36 = icmp eq ptr %35, null
  br i1 %36, label %37, label %38

37:                                               ; preds = %34
  call void @ERR_new() #4
  call void @ERR_set_debug(ptr noundef nonnull @.str, i32 noundef 71, ptr noundef nonnull @__func__.i2v_AUTHORITY_KEYID) #4
  call void (i32, i32, ptr, ...) @ERR_set_error(i32 noundef 34, i32 noundef 524301, ptr noundef null) #4
  br label %44

38:                                               ; preds = %34
  %39 = call i32 @X509V3_add_value(ptr noundef nonnull @.str.2, ptr noundef nonnull %35, ptr noundef nonnull %4) #4
  %.not31 = icmp eq i32 %39, 0
  br i1 %.not31, label %40, label %41

40:                                               ; preds = %38
  call void @CRYPTO_free(ptr noundef nonnull %35, ptr noundef nonnull @.str, i32 noundef 75) #4
  br label %44

41:                                               ; preds = %38
  call void @CRYPTO_free(ptr noundef nonnull %35, ptr noundef nonnull @.str, i32 noundef 78) #4
  br label %42

42:                                               ; preds = %41, %31
  %43 = load ptr, ptr %4, align 8, !tbaa !3
  br label %48

44:                                               ; preds = %40, %37, %29, %20
  %45 = icmp eq ptr %2, null
  br i1 %45, label %46, label %48

46:                                               ; preds = %44
  %47 = load ptr, ptr %4, align 8, !tbaa !3
  call void @OPENSSL_sk_pop_free(ptr noundef %47, ptr noundef nonnull @X509V3_conf_free) #4
  br label %48

48:                                               ; preds = %44, %46, %42, %9
  %.0 = phi ptr [ null, %9 ], [ %43, %42 ], [ null, %46 ], [ null, %44 ]
  ret ptr %.0
}